; Function Attrs: nounwind uwtable
define internal ptr @addBddDoStrictThreshold(ptr noundef %0, ptr noundef %1, ptr noundef %2) #0 {
  %4 = load i32, ptr %1, align 8, !tbaa !27
  %5 = icmp eq i32 %4, 2147483647
  br i1 %5, label %6, label %18

6:                                                ; preds = %3
  %7 = getelementptr inbounds nuw i8, ptr %0, i64 40
  %8 = load ptr, ptr %7, align 8, !tbaa !28
  %9 = ptrtoint ptr %8 to i64
  %10 = getelementptr inbounds nuw i8, ptr %1, i64 16
  %11 = load double, ptr %10, align 8, !tbaa !29
  %12 = getelementptr inbounds nuw i8, ptr %2, i64 16
  %13 = load double, ptr %12, align 8, !tbaa !29
  %14 = fcmp ole double %11, %13
  %15 = zext i1 %14 to i64
  %16 = xor i64 %15, %9
  %17 = inttoptr i64 %16 to ptr
  br label %67

18:                                               ; preds = %3
  %19 = tail call ptr @cuddCacheLookup2(ptr noundef %0, ptr noundef nonnull @addBddDoStrictThreshold, ptr noundef nonnull %1, ptr noundef %2) #4
  %.not = icmp eq ptr %19, null
  br i1 %.not, label %20, label %67

20:                                               ; preds = %18
  %21 = load i32, ptr %1, align 8, !tbaa !27
  %22 = getelementptr inbounds nuw i8, ptr %1, i64 16
  %23 = load ptr, ptr %22, align 8, !tbaa !29
  %24 = getelementptr inbounds nuw i8, ptr %1, i64 24
  %25 = load ptr, ptr %24, align 8, !tbaa !29
  %26 = tail call ptr @addBddDoStrictThreshold(ptr noundef %0, ptr noundef %23, ptr noundef %2)
  %27 = icmp eq ptr %26, null
  br i1 %27, label %67, label %28

28:                                               ; preds = %20
  %29 = ptrtoint ptr %26 to i64
  %30 = and i64 %29, -2
  %31 = inttoptr i64 %30 to ptr
  %32 = getelementptr inbounds nuw i8, ptr %31, i64 4
  %33 = load i32, ptr %32, align 4, !tbaa !3
  %34 = add i32 %33, 1
  store i32 %34, ptr %32, align 4, !tbaa !3
  %35 = tail call ptr @addBddDoStrictThreshold(ptr noundef %0, ptr noundef %25, ptr noundef %2)
  %36 = icmp eq ptr %35, null
  br i1 %36, label %37, label %38

37:                                               ; preds = %28
  tail call void @Cudd_RecursiveDeref(ptr noundef %0, ptr noundef nonnull %26) #4
  br label %67

38:                                               ; preds = %28
  %39 = ptrtoint ptr %35 to i64
  %40 = and i64 %39, -2
  %41 = inttoptr i64 %40 to ptr
  %42 = getelementptr inbounds nuw i8, ptr %41, i64 4
  %43 = load i32, ptr %42, align 4, !tbaa !3
  %44 = add i32 %43, 1
  store i32 %44, ptr %42, align 4, !tbaa !3
  %45 = and i64 %29, 1
  %.not63 = icmp eq i64 %45, 0
  %46 = icmp eq ptr %26, %35
  br i1 %.not63, label %58, label %47

47:                                               ; preds = %38
  br i1 %46, label %.thread, label %48

48:                                               ; preds = %47
  %49 = xor i64 %39, 1
  %50 = inttoptr i64 %49 to ptr
  %51 = tail call ptr @cuddUniqueInter(ptr noundef %0, i32 noundef %21, ptr noundef nonnull %31, ptr noundef %50) #4
  %52 = icmp eq ptr %51, null
  br i1 %52, label %53, label %.thread

53:                                               ; preds = %48
  tail call void @Cudd_RecursiveDeref(ptr noundef %0, ptr noundef nonnull %26) #4
  tail call void @Cudd_RecursiveDeref(ptr noundef %0, ptr noundef nonnull %35) #4
  br label %67

.thread:                                          ; preds = %47, %48
  %54 = phi ptr [ %51, %48 ], [ %31, %47 ]
  %55 = ptrtoint ptr %54 to i64
  %56 = xor i64 %55, 1
  %57 = inttoptr i64 %56 to ptr
  br label %.thread64

58:                                               ; preds = %38
  br i1 %46, label %.thread64, label %59

59:                                               ; preds = %58
  %60 = tail call ptr @cuddUniqueInter(ptr noundef %0, i32 noundef %21, ptr noundef nonnull %26, ptr noundef nonnull %35) #4
  %61 = icmp eq ptr %60, null
  br i1 %61, label %62, label %.thread64

62:                                               ; preds = %59
  tail call void @Cudd_RecursiveDeref(ptr noundef %0, ptr noundef nonnull %26) #4
  tail call void @Cudd_RecursiveDeref(ptr noundef %0, ptr noundef nonnull %35) #4
  br label %67

.thread64:                                        ; preds = %58, %59, %.thread
  %.057 = phi ptr [ %57, %.thread ], [ %60, %59 ], [ %26, %58 ]
  %63 = load i32, ptr %32, align 4, !tbaa !3
  %64 = add i32 %63, -1
  store i32 %64, ptr %32, align 4, !tbaa !3
  %65 = load i32, ptr %42, align 4, !tbaa !3
  %66 = add i32 %65, -1
  store i32 %66, ptr %42, align 4, !tbaa !3
  tail call void @cuddCacheInsert2(ptr noundef %0, ptr noundef nonnull @addBddDoStrictThreshold, ptr noundef nonnull %1, ptr noundef %2, ptr noundef %.057) #4
  br label %67

67:                                               ; preds = %20, %18, %.thread64, %62, %53, %37, %6
  %.0 = phi ptr [ %17, %6 ], [ null, %37 ], [ null, %53 ], [ %.057, %.thread64 ], [ null, %62 ], [ %19, %18 ], [ null, %20 ]
  ret ptr %.0
}